; Function Attrs: mustprogress nounwind uwtable
define dso_local noundef zeroext i1 @_ZN4node9inspector16MainThreadHandle4PostESt10unique_ptrINS0_7RequestESt14default_deleteIS3_EE(ptr noundef nonnull align 8 dereferenceable(72) %this, ptr nocapture noundef %request) local_unnamed_addr #3 align 2 {
entry:
  %agg.tmp = alloca %"class.std::unique_ptr", align 8
  %block_lock_ = getelementptr inbounds i8, ptr %this, i64 24
  tail call void @uv_mutex_lock(ptr noundef nonnull %block_lock_) #20
  %main_thread_ = getelementptr inbounds i8, ptr %this, i64 16
  %0 = load ptr, ptr %main_thread_, align 8
  %tobool.not = icmp ne ptr %0, null
  br i1 %tobool.not, label %if.end, label %cleanup

if.end:                                           ; preds = %entry
  %1 = load i64, ptr %request, align 8
  store i64 %1, ptr %agg.tmp, align 8
  store ptr null, ptr %request, align 8
  call void @_ZN4node9inspector19MainThreadInterface4PostESt10unique_ptrINS0_7RequestESt14default_deleteIS3_EE(ptr noundef nonnull align 8 dereferenceable(352) %0, ptr noundef nonnull %agg.tmp)
  %2 = load ptr, ptr %agg.tmp, align 8
  %cmp.not.i = icmp eq ptr %2, null
  br i1 %cmp.not.i, label %_ZNSt10unique_ptrIN4node9inspector7RequestESt14default_deleteIS2_EED2Ev.exit, label %_ZNKSt14default_deleteIN4node9inspector7RequestEEclEPS2_.exit.i

_ZNKSt14default_deleteIN4node9inspector7RequestEEclEPS2_.exit.i: ; preds = %if.end
  %vtable.i.i = load ptr, ptr %2, align 8
  %vfn.i.i = getelementptr inbounds i8, ptr %vtable.i.i, i64 16
  %3 = load ptr, ptr %vfn.i.i, align 8
  call void %3(ptr noundef nonnull align 8 dereferenceable(8) %2) #20
  br label %_ZNSt10unique_ptrIN4node9inspector7RequestESt14default_deleteIS2_EED2Ev.exit

_ZNSt10unique_ptrIN4node9inspector7RequestESt14default_deleteIS2_EED2Ev.exit: ; preds = %if.end, %_ZNKSt14default_deleteIN4node9inspector7RequestEEclEPS2_.exit.i
  store ptr null, ptr %agg.tmp, align 8
  br label %cleanup

cleanup:                                          ; preds = %entry, %_ZNSt10unique_ptrIN4node9inspector7RequestESt14default_deleteIS2_EED2Ev.exit
  call void @uv_mutex_unlock(ptr noundef nonnull %block_lock_) #20
  ret i1 %tobool.not
}